; ModuleID = '54/60.c'
source_filename = "54/60.c"
target datalayout = "e-m:e-p270:32:32-p271:32:32-p272:64:64-i64:64-f80:128-n8:16:32:64-S128"
target triple = "x86_64-pc-linux-gnu"

@.str = private unnamed_addr constant [6 x i8] c"%d %d\00", align 1
@.str.1 = private unnamed_addr constant [3 x i8] c"%d\00", align 1

; Function Attrs: noinline nounwind uwtable
define dso_local void @main() #0 {
  %1 = alloca i32, align 4
  %2 = alloca i32, align 4
  %3 = alloca i32, align 4
  %4 = alloca i32, align 4
  %5 = alloca [100 x i32], align 16
  store i32 1, i32* %4, align 4
  %6 = call i32 (i8*, ...) @__isoc99_scanf(i8* getelementptr inbounds ([6 x i8], [6 x i8]* @.str, i64 0, i64 0), i32* %2, i32* %3)
  store i32 1, i32* %4, align 4
  br label %7

7:                                                ; preds = %64, %0
  %8 = load i32, i32* %2, align 4
  store i32 %8, i32* %1, align 4
  %9 = load i32, i32* %2, align 4
  %10 = load i32, i32* %4, align 4
  %11 = mul nsw i32 %9, %10
  %12 = load i32, i32* %3, align 4
  %13 = add nsw i32 %11, %12
  %14 = load i32, i32* %1, align 4
  %15 = sext i32 %14 to i64
  %16 = getelementptr inbounds [100 x i32], [100 x i32]* %5, i64 0, i64 %15
  store i32 %13, i32* %16, align 4
  %17 = load i32, i32* %1, align 4
  %18 = add nsw i32 %17, -1
  store i32 %18, i32* %1, align 4
  br label %19

19:                                               ; preds = %51, %7
  %20 = load i32, i32* %1, align 4
  %21 = icmp sgt i32 %20, 0
  br i1 %21, label %22, label %52

22:                                               ; preds = %19
  %23 = load i32, i32* %1, align 4
  %24 = add nsw i32 %23, 1
  %25 = sext i32 %24 to i64
  %26 = getelementptr inbounds [100 x i32], [100 x i32]* %5, i64 0, i64 %25
  %27 = load i32, i32* %26, align 4
  %28 = load i32, i32* %2, align 4
  %29 = sub nsw i32 %28, 1
  %30 = srem i32 %27, %29
  %31 = icmp eq i32 %30, 0
  br i1 %31, label %32, label %50

32:                                               ; preds = %22
  %33 = load i32, i32* %1, align 4
  %34 = add nsw i32 %33, 1
  %35 = sext i32 %34 to i64
  %36 = getelementptr inbounds [100 x i32], [100 x i32]* %5, i64 0, i64 %35
  %37 = load i32, i32* %36, align 4
  %38 = load i32, i32* %2, align 4
  %39 = sub nsw i32 %38, 1
  %40 = sdiv i32 %37, %39
  %41 = load i32, i32* %2, align 4
  %42 = mul nsw i32 %40, %41
  %43 = load i32, i32* %3, align 4
  %44 = add nsw i32 %42, %43
  %45 = load i32, i32* %1, align 4
  %46 = sext i32 %45 to i64
  %47 = getelementptr inbounds [100 x i32], [100 x i32]* %5, i64 0, i64 %46
  store i32 %44, i32* %47, align 4
  %48 = load i32, i32* %1, align 4
  %49 = add nsw i32 %48, -1
  store i32 %49, i32* %1, align 4
  br label %51

50:                                               ; preds = %22
  br label %52

51:                                               ; preds = %32
  br label %19

52:                                               ; preds = %50, %19
  %53 = load i32, i32* %1, align 4
  %54 = icmp eq i32 %53, 0
  br i1 %54, label %55, label %59

55:                                               ; preds = %52
  %56 = getelementptr inbounds [100 x i32], [100 x i32]* %5, i64 0, i64 1
  %57 = load i32, i32* %56, align 4
  %58 = call i32 (i8*, ...) @printf(i8* getelementptr inbounds ([3 x i8], [3 x i8]* @.str.1, i64 0, i64 0), i32 %57)
  br label %59

59:                                               ; preds = %55, %52
  %60 = load i32, i32* %1, align 4
  %61 = icmp eq i32 %60, 0
  br i1 %61, label %62, label %63

62:                                               ; preds = %59
  br label %67

63:                                               ; preds = %59
  br label %64

64:                                               ; preds = %63
  %65 = load i32, i32* %4, align 4
  %66 = add nsw i32 %65, 1
  store i32 %66, i32* %4, align 4
  br label %7

67:                                               ; preds = %62
  ret void
}

declare dso_local i32 @__isoc99_scanf(i8*, ...) #1

declare dso_local i32 @printf(i8*, ...) #1


!llvm.module.flags = !{!0}
!llvm.ident = !{!1}

!0 = !{i32 1, !"wchar_size", i32 4}
!1 = !{!"clang version 10.0.0-4ubuntu1 "}
